target datalayout = "e-m:e-p270:32:32-p271:32:32-p272:64:64-i64:64-i128:128-f80:128-n8:16:32:64-S128"
target triple = "x86_64-pc-linux-gnu"

%struct.lstopo_output = type { ptr, i32, i32, i32, ptr, i32, i32, i32, i32, i32, i32, i32, i32, ptr, ptr, i32, i32, i64, i64, i64, i32, [3 x [128 x i8]], i32, i32, ptr, i32, i32, i32, i32, i32, i32, %struct.hwloc_calc_level, i32, i32, i32, i64, [256 x i8], i32, i32, i32, i32, i32, float, [20 x i32], i32, i32, i32, [20 x i32], i32, [20 x i32], i32, [20 x i32], i32, i32, i32, i32, ptr, ptr, i32, [20 x i32], [20 x i32], [20 x i32], ptr, ptr, i64, ptr, i32, i32, i32 }
%struct.hwloc_calc_level = type { i32, i32, %union.hwloc_obj_attr_u, [32 x i8], i32, i32, i32, i32 }
%union.hwloc_obj_attr_u = type { %struct.hwloc_numanode_attr_s, [24 x i8] }
%struct.hwloc_numanode_attr_s = type { i64, i32, ptr }
%struct.hwloc_infos_s = type { ptr, i32, i32 }
%struct.hwloc_obj = type { i32, ptr, i32, ptr, i64, ptr, i32, i32, ptr, ptr, ptr, i32, ptr, ptr, i32, ptr, ptr, ptr, i32, i32, ptr, i32, ptr, i32, ptr, ptr, ptr, ptr, ptr, %struct.hwloc_infos_s, ptr, i64 }

@stderr = external global ptr, align 8
@.str = private unnamed_addr constant [36 x i8] c"Failed to open %s for writing (%s)\0A\00", align 1
@stdout = external global ptr, align 8
@.str.11 = private unnamed_addr constant [56 x i8] c"Cannot output assymetric topology in synthetic format.\0A\00", align 1
@.str.12 = private unnamed_addr constant [29 x i8] c"# Ignoring %u Misc objects.\0A\00", align 1
@.str.13 = private unnamed_addr constant [51 x i8] c"# (pass --filter Misc:none to hide this message).\0A\00", align 1
@.str.14 = private unnamed_addr constant [62 x i8] c"# Ignoring %u Bridge, %u PCI device and %u OS device objects\0A\00", align 1
@.str.15 = private unnamed_addr constant [40 x i8] c"# (pass --no-io to hide this message).\0A\00", align 1
@.str.16 = private unnamed_addr constant [47 x i8] c"Failed to export a synthetic description (%s)\0A\00", align 1
@.str.17 = private unnamed_addr constant [4 x i8] c"%s\0A\00", align 1

; Function Attrs: inlinehint nounwind willreturn memory(read) uwtable
define internal i32 @hwloc_get_nbobjs_by_type(ptr noundef %0, i32 noundef %1) #5 {
  %3 = alloca i32, align 4
  %4 = alloca ptr, align 8
  %5 = alloca i32, align 4
  %6 = alloca i32, align 4
  %7 = alloca i32, align 4
  store ptr %0, ptr %4, align 8, !tbaa !23
  store i32 %1, ptr %5, align 4, !tbaa !25
  call void @llvm.lifetime.start.p0(i64 4, ptr %6) #12
  %8 = load ptr, ptr %4, align 8, !tbaa !23
  %9 = load i32, ptr %5, align 4, !tbaa !25
  %10 = call i32 @hwloc_get_type_depth(ptr noundef %8, i32 noundef %9)
  store i32 %10, ptr %6, align 4, !tbaa !25
  %11 = load i32, ptr %6, align 4, !tbaa !25
  %12 = icmp eq i32 %11, -1
  br i1 %12, label %13, label %14

13:                                               ; preds = %2
  store i32 0, ptr %3, align 4
  store i32 1, ptr %7, align 4
  br label %22

14:                                               ; preds = %2
  %15 = load i32, ptr %6, align 4, !tbaa !25
  %16 = icmp eq i32 %15, -2
  br i1 %16, label %17, label %18

17:                                               ; preds = %14
  store i32 -1, ptr %3, align 4
  store i32 1, ptr %7, align 4
  br label %22

18:                                               ; preds = %14
  %19 = load ptr, ptr %4, align 8, !tbaa !23
  %20 = load i32, ptr %6, align 4, !tbaa !25
  %21 = call i32 @hwloc_get_nbobjs_by_depth(ptr noundef %19, i32 noundef %20) #14
  store i32 %21, ptr %3, align 4
  store i32 1, ptr %7, align 4
  br label %22

22:                                               ; preds = %18, %17, %13
  call void @llvm.lifetime.end.p0(i64 4, ptr %6) #12
  %23 = load i32, ptr %3, align 4
  ret i32 %23
}

; Function Attrs: inlinehint nounwind willreturn memory(read) uwtable
define internal ptr @hwloc_get_root_obj(ptr noundef %0) #5 {
  %2 = alloca ptr, align 8
  store ptr %0, ptr %2, align 8, !tbaa !23
  %3 = load ptr, ptr %2, align 8, !tbaa !23
  %4 = call ptr @hwloc_get_obj_by_depth(ptr noundef %3, i32 noundef 0, i32 noundef 0) #14
  ret ptr %4
}

; Function Attrs: nounwind uwtable
define hidden i32 @output_synthetic(ptr noundef %0, ptr noundef %1) #0 {
  %3 = alloca i32, align 4
  %4 = alloca ptr, align 8
  %5 = alloca ptr, align 8
  %6 = alloca ptr, align 8
  %7 = alloca ptr, align 8
  %8 = alloca i32, align 4
  %9 = alloca [1024 x i8], align 16
  %10 = alloca ptr, align 8
  %11 = alloca i32, align 4
  %12 = alloca i32, align 4
  %13 = alloca i32, align 4
  %14 = alloca i32, align 4
  store ptr %0, ptr %4, align 8, !tbaa !4
  store ptr %1, ptr %5, align 8, !tbaa !9
  call void @llvm.lifetime.start.p0(i64 8, ptr %6) #12
  %15 = load ptr, ptr %4, align 8, !tbaa !4
  %16 = getelementptr inbounds nuw %struct.lstopo_output, ptr %15, i32 0, i32 0
  %17 = load ptr, ptr %16, align 8, !tbaa !11
  store ptr %17, ptr %6, align 8, !tbaa !23
  call void @llvm.lifetime.start.p0(i64 8, ptr %7) #12
  call void @llvm.lifetime.start.p0(i64 4, ptr %8) #12
  call void @llvm.lifetime.start.p0(i64 1024, ptr %9) #12
  call void @llvm.lifetime.start.p0(i64 8, ptr %10) #12
  store ptr null, ptr %10, align 8, !tbaa !9
  call void @llvm.lifetime.start.p0(i64 4, ptr %11) #12
  call void @llvm.lifetime.start.p0(i64 4, ptr %12) #12
  call void @llvm.lifetime.start.p0(i64 4, ptr %13) #12
  %18 = load ptr, ptr %6, align 8, !tbaa !23
  %19 = call ptr @hwloc_get_root_obj(ptr noundef %18) #14
  %20 = getelementptr inbounds nuw %struct.hwloc_obj, ptr %19, i32 0, i32 18
  %21 = load i32, ptr %20, align 8, !tbaa !101
  %22 = icmp ne i32 %21, 0
  br i1 %22, label %26, label %23

23:                                               ; preds = %2
  %24 = load ptr, ptr @stderr, align 8, !tbaa !27
  %25 = call i32 (ptr, ptr, ...) @fprintf(ptr noundef %24, ptr noundef @.str.11) #12
  br label %136

26:                                               ; preds = %2
  %27 = load ptr, ptr %6, align 8, !tbaa !23
  %28 = call i32 @hwloc_get_nbobjs_by_type(ptr noundef %27, i32 noundef 19) #14
  store i32 %28, ptr %11, align 4, !tbaa !25
  %29 = load i32, ptr %11, align 4, !tbaa !25
  %30 = icmp ne i32 %29, 0
  br i1 %30, label %31, label %37

31:                                               ; preds = %26
  %32 = load ptr, ptr @stderr, align 8, !tbaa !27
  %33 = load i32, ptr %11, align 4, !tbaa !25
  %34 = call i32 (ptr, ptr, ...) @fprintf(ptr noundef %32, ptr noundef @.str.12, i32 noundef %33) #12
  %35 = load ptr, ptr @stderr, align 8, !tbaa !27
  %36 = call i32 (ptr, ptr, ...) @fprintf(ptr noundef %35, ptr noundef @.str.13) #12
  br label %37

37:                                               ; preds = %31, %26
  %38 = load ptr, ptr %6, align 8, !tbaa !23
  %39 = call i32 @hwloc_get_nbobjs_by_type(ptr noundef %38, i32 noundef 16) #14
  store i32 %39, ptr %11, align 4, !tbaa !25
  %40 = load ptr, ptr %6, align 8, !tbaa !23
  %41 = call i32 @hwloc_get_nbobjs_by_type(ptr noundef %40, i32 noundef 17) #14
  store i32 %41, ptr %12, align 4, !tbaa !25
  %42 = load ptr, ptr %6, align 8, !tbaa !23
  %43 = call i32 @hwloc_get_nbobjs_by_type(ptr noundef %42, i32 noundef 18) #14
  store i32 %43, ptr %13, align 4, !tbaa !25
  %44 = load i32, ptr %11, align 4, !tbaa !25
  %45 = icmp ne i32 %44, 0
  br i1 %45, label %52, label %46

46:                                               ; preds = %37
  %47 = load i32, ptr %12, align 4, !tbaa !25
  %48 = icmp ne i32 %47, 0
  br i1 %48, label %52, label %49

49:                                               ; preds = %46
  %50 = load i32, ptr %13, align 4, !tbaa !25
  %51 = icmp ne i32 %50, 0
  br i1 %51, label %52, label %60

52:                                               ; preds = %49, %46, %37
  %53 = load ptr, ptr @stderr, align 8, !tbaa !27
  %54 = load i32, ptr %11, align 4, !tbaa !25
  %55 = load i32, ptr %12, align 4, !tbaa !25
  %56 = load i32, ptr %13, align 4, !tbaa !25
  %57 = call i32 (ptr, ptr, ...) @fprintf(ptr noundef %53, ptr noundef @.str.14, i32 noundef %54, i32 noundef %55, i32 noundef %56) #12
  %58 = load ptr, ptr @stderr, align 8, !tbaa !27
  %59 = call i32 (ptr, ptr, ...) @fprintf(ptr noundef %58, ptr noundef @.str.15) #12
  br label %60

60:                                               ; preds = %52, %49
  %61 = load ptr, ptr %6, align 8, !tbaa !23
  %62 = getelementptr inbounds [1024 x i8], ptr %9, i64 0, i64 0
  %63 = load ptr, ptr %4, align 8, !tbaa !4
  %64 = getelementptr inbounds nuw %struct.lstopo_output, ptr %63, i32 0, i32 17
  %65 = load i64, ptr %64, align 8, !tbaa !102
  %66 = call i32 @hwloc_topology_export_synthetic(ptr noundef %61, ptr noundef %62, i64 noundef 1024, i64 noundef %65)
  store i32 %66, ptr %8, align 4, !tbaa !25
  %67 = load i32, ptr %8, align 4, !tbaa !25
  %68 = icmp slt i32 %67, 0
  br i1 %68, label %69, label %75

69:                                               ; preds = %60
  %70 = load ptr, ptr @stderr, align 8, !tbaa !27
  %71 = call ptr @__errno_location() #13
  %72 = load i32, ptr %71, align 4, !tbaa !25
  %73 = call ptr @strerror(i32 noundef %72) #12
  %74 = call i32 (ptr, ptr, ...) @fprintf(ptr noundef %70, ptr noundef @.str.16, ptr noundef %73) #12
  br label %136

75:                                               ; preds = %60
  %76 = load i32, ptr %8, align 4, !tbaa !25
  %77 = icmp sge i32 %76, 1024
  br i1 %77, label %78, label %100

78:                                               ; preds = %75
  %79 = load i32, ptr %8, align 4, !tbaa !25
  %80 = add nsw i32 %79, 1
  %81 = sext i32 %80 to i64
  %82 = call noalias ptr @malloc(i64 noundef %81) #15
  store ptr %82, ptr %10, align 8, !tbaa !9
  %83 = load ptr, ptr %10, align 8, !tbaa !9
  %84 = icmp ne ptr %83, null
  br i1 %84, label %86, label %85

85:                                               ; preds = %78
  br label %136

86:                                               ; preds = %78
  %87 = load ptr, ptr %6, align 8, !tbaa !23
  %88 = load ptr, ptr %10, align 8, !tbaa !9
  %89 = load i32, ptr %8, align 4, !tbaa !25
  %90 = add nsw i32 %89, 1
  %91 = sext i32 %90 to i64
  %92 = load ptr, ptr %4, align 8, !tbaa !4
  %93 = getelementptr inbounds nuw %struct.lstopo_output, ptr %92, i32 0, i32 17
  %94 = load i64, ptr %93, align 8, !tbaa !102
  %95 = call i32 @hwloc_topology_export_synthetic(ptr noundef %87, ptr noundef %88, i64 noundef %91, i64 noundef %94)
  store i32 %95, ptr %8, align 4, !tbaa !25
  %96 = load i32, ptr %8, align 4, !tbaa !25
  %97 = icmp slt i32 %96, 0
  br i1 %97, label %98, label %99

98:                                               ; preds = %86
  br label %134

99:                                               ; preds = %86
  br label %100

100:                                              ; preds = %99, %75
  %101 = load ptr, ptr %5, align 8, !tbaa !9
  %102 = load ptr, ptr %4, align 8, !tbaa !4
  %103 = getelementptr inbounds nuw %struct.lstopo_output, ptr %102, i32 0, i32 5
  %104 = load i32, ptr %103, align 8, !tbaa !26
  %105 = call noalias ptr @open_output(ptr noundef %101, i32 noundef %104)
  store ptr %105, ptr %7, align 8, !tbaa !27
  %106 = load ptr, ptr %7, align 8, !tbaa !27
  %107 = icmp ne ptr %106, null
  br i1 %107, label %115, label %108

108:                                              ; preds = %100
  %109 = load ptr, ptr @stderr, align 8, !tbaa !27
  %110 = load ptr, ptr %5, align 8, !tbaa !9
  %111 = call ptr @__errno_location() #13
  %112 = load i32, ptr %111, align 4, !tbaa !25
  %113 = call ptr @strerror(i32 noundef %112) #12
  %114 = call i32 (ptr, ptr, ...) @fprintf(ptr noundef %109, ptr noundef @.str, ptr noundef %110, ptr noundef %113) #12
  br label %134

115:                                              ; preds = %100
  %116 = load ptr, ptr %7, align 8, !tbaa !27
  %117 = load ptr, ptr %10, align 8, !tbaa !9
  %118 = icmp ne ptr %117, null
  br i1 %118, label %119, label %121

119:                                              ; preds = %115
  %120 = load ptr, ptr %10, align 8, !tbaa !9
  br label %123

121:                                              ; preds = %115
  %122 = getelementptr inbounds [1024 x i8], ptr %9, i64 0, i64 0
  br label %123

123:                                              ; preds = %121, %119
  %124 = phi ptr [ %120, %119 ], [ %122, %121 ]
  %125 = call i32 (ptr, ptr, ...) @fprintf(ptr noundef %116, ptr noundef @.str.17, ptr noundef %124) #12
  %126 = load ptr, ptr %7, align 8, !tbaa !27
  %127 = load ptr, ptr @stdout, align 8, !tbaa !27
  %128 = icmp ne ptr %126, %127
  br i1 %128, label %129, label %132

129:                                              ; preds = %123
  %130 = load ptr, ptr %7, align 8, !tbaa !27
  %131 = call i32 @fclose(ptr noundef %130)
  br label %132

132:                                              ; preds = %129, %123
  %133 = load ptr, ptr %10, align 8, !tbaa !9
  call void @free(ptr noundef %133) #12
  store i32 0, ptr %3, align 4
  store i32 1, ptr %14, align 4
  br label %137

134:                                              ; preds = %108, %98
  %135 = load ptr, ptr %10, align 8, !tbaa !9
  call void @free(ptr noundef %135) #12
  br label %136

136:                                              ; preds = %134, %85, %69, %23
  store i32 -1, ptr %3, align 4
  store i32 1, ptr %14, align 4
  br label %137

137:                                              ; preds = %136, %132
  call void @llvm.lifetime.end.p0(i64 4, ptr %13) #12
  call void @llvm.lifetime.end.p0(i64 4, ptr %12) #12
  call void @llvm.lifetime.end.p0(i64 4, ptr %11) #12
  call void @llvm.lifetime.end.p0(i64 8, ptr %10) #12
  call void @llvm.lifetime.end.p0(i64 1024, ptr %9) #12
  call void @llvm.lifetime.end.p0(i64 4, ptr %8) #12
  call void @llvm.lifetime.end.p0(i64 8, ptr %7) #12
  call void @llvm.lifetime.end.p0(i64 8, ptr %6) #12
  %138 = load i32, ptr %3, align 4
  ret i32 %138
}