; Function Attrs: nounwind uwtable
define hidden range(i32 -1, 1) i32 @output_synthetic(ptr noundef readonly captures(none) %0, ptr noundef %1) local_unnamed_addr #0 {
  %3 = alloca [1024 x i8], align 16
  %4 = load ptr, ptr %0, align 8, !tbaa !4
  call void @llvm.lifetime.start.p0(i64 1024, ptr nonnull %3) #18
  %5 = tail call ptr @hwloc_get_obj_by_depth(ptr noundef readonly %4, i32 noundef 0, i32 noundef 0) #21
  %6 = getelementptr inbounds nuw i8, ptr %5, i64 136
  %7 = load i32, ptr %6, align 8, !tbaa !105
  %.not = icmp eq i32 %7, 0
  br i1 %.not, label %8, label %11

8:                                                ; preds = %2
  %9 = load ptr, ptr @stderr, align 8, !tbaa !22
  %10 = tail call i64 @fwrite(ptr nonnull @.str.11, i64 55, i64 1, ptr %9) #23
  br label %75

11:                                               ; preds = %2
  %12 = tail call i32 @hwloc_get_type_depth(ptr noundef %4, i32 noundef 19) #18
  switch i32 %12, label %hwloc_get_nbobjs_by_type.exit [
    i32 -1, label %hwloc_get_nbobjs_by_type.exit.thread
    i32 -2, label %hwloc_get_nbobjs_by_type.exit.thread57
  ]

hwloc_get_nbobjs_by_type.exit:                    ; preds = %11
  %13 = tail call i32 @hwloc_get_nbobjs_by_depth(ptr noundef %4, i32 noundef %12) #21
  %.not44 = icmp eq i32 %13, 0
  br i1 %.not44, label %hwloc_get_nbobjs_by_type.exit.thread, label %hwloc_get_nbobjs_by_type.exit.thread57

hwloc_get_nbobjs_by_type.exit.thread57:           ; preds = %11, %hwloc_get_nbobjs_by_type.exit
  %.0.i60 = phi i32 [ %13, %hwloc_get_nbobjs_by_type.exit ], [ -1, %11 ]
  %14 = load ptr, ptr @stderr, align 8, !tbaa !22
  %15 = tail call i32 (ptr, ptr, ...) @fprintf(ptr noundef %14, ptr noundef nonnull @.str.12, i32 noundef %.0.i60) #20
  %16 = load ptr, ptr @stderr, align 8, !tbaa !22
  %17 = tail call i64 @fwrite(ptr nonnull @.str.13, i64 50, i64 1, ptr %16) #23
  br label %hwloc_get_nbobjs_by_type.exit.thread

hwloc_get_nbobjs_by_type.exit.thread:             ; preds = %11, %hwloc_get_nbobjs_by_type.exit.thread57, %hwloc_get_nbobjs_by_type.exit
  %18 = tail call i32 @hwloc_get_type_depth(ptr noundef %4, i32 noundef 16) #18
  switch i32 %18, label %20 [
    i32 -1, label %hwloc_get_nbobjs_by_type.exit50
    i32 -2, label %19
  ]

19:                                               ; preds = %hwloc_get_nbobjs_by_type.exit.thread
  br label %hwloc_get_nbobjs_by_type.exit50

20:                                               ; preds = %hwloc_get_nbobjs_by_type.exit.thread
  %21 = tail call i32 @hwloc_get_nbobjs_by_depth(ptr noundef %4, i32 noundef %18) #21
  br label %hwloc_get_nbobjs_by_type.exit50

hwloc_get_nbobjs_by_type.exit50:                  ; preds = %hwloc_get_nbobjs_by_type.exit.thread, %19, %20
  %.0.i49 = phi i32 [ -1, %19 ], [ %21, %20 ], [ 0, %hwloc_get_nbobjs_by_type.exit.thread ]
  %22 = tail call i32 @hwloc_get_type_depth(ptr noundef %4, i32 noundef 17) #18
  switch i32 %22, label %24 [
    i32 -1, label %hwloc_get_nbobjs_by_type.exit52
    i32 -2, label %23
  ]

23:                                               ; preds = %hwloc_get_nbobjs_by_type.exit50
  br label %hwloc_get_nbobjs_by_type.exit52

24:                                               ; preds = %hwloc_get_nbobjs_by_type.exit50
  %25 = tail call i32 @hwloc_get_nbobjs_by_depth(ptr noundef %4, i32 noundef %22) #21
  br label %hwloc_get_nbobjs_by_type.exit52

hwloc_get_nbobjs_by_type.exit52:                  ; preds = %hwloc_get_nbobjs_by_type.exit50, %23, %24
  %.0.i51 = phi i32 [ -1, %23 ], [ %25, %24 ], [ 0, %hwloc_get_nbobjs_by_type.exit50 ]
  %26 = tail call i32 @hwloc_get_type_depth(ptr noundef %4, i32 noundef 18) #18
  switch i32 %26, label %27 [
    i32 -1, label %hwloc_get_nbobjs_by_type.exit54
    i32 -2, label %hwloc_get_nbobjs_by_type.exit54.thread
  ]

27:                                               ; preds = %hwloc_get_nbobjs_by_type.exit52
  %28 = tail call i32 @hwloc_get_nbobjs_by_depth(ptr noundef %4, i32 noundef %26) #21
  br label %hwloc_get_nbobjs_by_type.exit54

hwloc_get_nbobjs_by_type.exit54:                  ; preds = %hwloc_get_nbobjs_by_type.exit52, %27
  %.0.i53 = phi i32 [ %28, %27 ], [ 0, %hwloc_get_nbobjs_by_type.exit52 ]
  %29 = icmp ne i32 %.0.i49, 0
  %30 = icmp ne i32 %.0.i51, 0
  %or.cond = select i1 %29, i1 true, i1 %30
  %31 = icmp ne i32 %.0.i53, 0
  %or.cond3 = select i1 %or.cond, i1 true, i1 %31
  br i1 %or.cond3, label %hwloc_get_nbobjs_by_type.exit54.thread, label %36

hwloc_get_nbobjs_by_type.exit54.thread:           ; preds = %hwloc_get_nbobjs_by_type.exit52, %hwloc_get_nbobjs_by_type.exit54
  %.0.i5364 = phi i32 [ %.0.i53, %hwloc_get_nbobjs_by_type.exit54 ], [ -1, %hwloc_get_nbobjs_by_type.exit52 ]
  %32 = load ptr, ptr @stderr, align 8, !tbaa !22
  %33 = tail call i32 (ptr, ptr, ...) @fprintf(ptr noundef %32, ptr noundef nonnull @.str.14, i32 noundef %.0.i49, i32 noundef %.0.i51, i32 noundef %.0.i5364) #20
  %34 = load ptr, ptr @stderr, align 8, !tbaa !22
  %35 = tail call i64 @fwrite(ptr nonnull @.str.15, i64 39, i64 1, ptr %34) #23
  br label %36

36:                                               ; preds = %hwloc_get_nbobjs_by_type.exit54, %hwloc_get_nbobjs_by_type.exit54.thread
  %37 = getelementptr inbounds nuw i8, ptr %0, i64 88
  %38 = load i64, ptr %37, align 8, !tbaa !106
  %39 = call i32 @hwloc_topology_export_synthetic(ptr noundef %4, ptr noundef nonnull %3, i64 noundef 1024, i64 noundef %38) #18
  %40 = icmp slt i32 %39, 0
  br i1 %40, label %41, label %47

41:                                               ; preds = %36
  %42 = load ptr, ptr @stderr, align 8, !tbaa !22
  %43 = tail call ptr @__errno_location() #19
  %44 = load i32, ptr %43, align 4, !tbaa !23
  %45 = call ptr @strerror(i32 noundef %44) #18
  %46 = call i32 (ptr, ptr, ...) @fprintf(ptr noundef %42, ptr noundef nonnull @.str.16, ptr noundef %45) #20
  br label %75

47:                                               ; preds = %36
  %48 = icmp samesign ugt i32 %39, 1023
  br i1 %48, label %49, label %57

49:                                               ; preds = %47
  %50 = add nuw nsw i32 %39, 1
  %51 = zext nneg i32 %50 to i64
  %52 = call noalias ptr @malloc(i64 noundef %51) #22
  %.not45 = icmp eq ptr %52, null
  br i1 %.not45, label %75, label %53

53:                                               ; preds = %49
  %54 = load i64, ptr %37, align 8, !tbaa !106
  %55 = call i32 @hwloc_topology_export_synthetic(ptr noundef %4, ptr noundef nonnull %52, i64 noundef %51, i64 noundef %54) #18
  %56 = icmp slt i32 %55, 0
  br i1 %56, label %74, label %57

57:                                               ; preds = %53, %47
  %.039 = phi ptr [ %52, %53 ], [ null, %47 ]
  %58 = getelementptr inbounds nuw i8, ptr %0, i64 32
  %59 = load i32, ptr %58, align 8, !tbaa !21
  %60 = call noalias ptr @open_output(ptr noundef %1, i32 noundef %59) #18
  %.not46 = icmp eq ptr %60, null
  br i1 %.not46, label %61, label %67

61:                                               ; preds = %57
  %62 = load ptr, ptr @stderr, align 8, !tbaa !22
  %63 = tail call ptr @__errno_location() #19
  %64 = load i32, ptr %63, align 4, !tbaa !23
  %65 = call ptr @strerror(i32 noundef %64) #18
  %66 = call i32 (ptr, ptr, ...) @fprintf(ptr noundef %62, ptr noundef nonnull @.str, ptr noundef %1, ptr noundef %65) #20
  br label %74

67:                                               ; preds = %57
  %.not47 = icmp eq ptr %.039, null
  %68 = select i1 %.not47, ptr %3, ptr %.039
  %69 = call i32 (ptr, ptr, ...) @fprintf(ptr noundef nonnull %60, ptr noundef nonnull @.str.17, ptr noundef nonnull %68) #18
  %70 = load ptr, ptr @stdout, align 8, !tbaa !22
  %.not48 = icmp eq ptr %60, %70
  br i1 %.not48, label %73, label %71

71:                                               ; preds = %67
  %72 = call i32 @fclose(ptr noundef nonnull %60)
  br label %73

73:                                               ; preds = %71, %67
  call void @free(ptr noundef %.039) #18
  br label %75

74:                                               ; preds = %53, %61
  %.1 = phi ptr [ %52, %53 ], [ %.039, %61 ]
  call void @free(ptr noundef %.1) #18
  br label %75

75:                                               ; preds = %8, %41, %74, %49, %73
  %.0 = phi i32 [ 0, %73 ], [ -1, %49 ], [ -1, %74 ], [ -1, %41 ], [ -1, %8 ]
  call void @llvm.lifetime.end.p0(i64 1024, ptr nonnull %3) #18
  ret i32 %.0
}